target datalayout = "e-m:e-p270:32:32-p271:32:32-p272:64:64-i64:64-i128:128-f80:128-n8:16:32:64-S128"
target triple = "x86_64-pc-linux-gnu"

%struct.expert_field = type { i32, i32 }
%struct._packet_info = type { ptr, ptr, i32, i32, %struct.nstime_t, %struct.nstime_t, %struct.nstime_t, i8, ptr, ptr, ptr, ptr, %struct._address, %struct._address, %struct._address, %struct._address, %struct._address, %struct._address, i32, ptr, i8, [3 x i8], %struct.anon, i32, i32, i32, i32, ptr, i8, ptr, ptr, i16, i16, i32, i32, i16, i32, i32, ptr, ptr, ptr, i8, i8, i16, i16, i16, i32, i16, i16, ptr, ptr, ptr, ptr, ptr, i32, i32 }
%struct.nstime_t = type { i64, i32 }
%struct._address = type { i32, i32, ptr, ptr }
%struct.anon = type { i8, [3 x i8] }
%struct.opsi_attribute_handle_t = type { i16, ptr, ptr, ptr, ptr }

@hf_opsi_major_version = internal global i32 0, align 4
@hf_opsi_minor_version = internal global i32 0, align 4
@hf_opsi_opcode = internal global i32 0, align 4
@hf_opsi_hook_id = internal global i32 0, align 4
@hf_opsi_length = internal global i32 0, align 4
@hf_opsi_session_id = internal global i32 0, align 4
@hf_opsi_attribute_length = internal global i32 0, align 4
@ett_opsi = internal global i32 0, align 4
@ei_opsi_unknown_attribute = internal global %struct.expert_field zeroinitializer, align 4
@ei_opsi_short_frame = internal global %struct.expert_field zeroinitializer, align 4
@.str.91 = private unnamed_addr constant [5 x i8] c"OPSI\00", align 1
@proto_opsi = internal global i32 0, align 4
@.str.162 = private unnamed_addr constant [3 x i8] c", \00", align 1
@.str.163 = private unnamed_addr constant [20 x i8] c"<Unknown opcode %d>\00", align 1
@.str.164 = private unnamed_addr constant [23 x i8] c"Unknown attribute (%d)\00", align 1
@.str.165 = private unnamed_addr constant [8 x i8] c"%s (%d)\00", align 1

; Function Attrs: null_pointer_is_valid sspstrong uwtable
define internal void @dissect_attributes(ptr noundef %0, ptr noundef %1, ptr noundef %2, i32 noundef %3, i32 noundef %4) #0 {
  %6 = alloca ptr, align 8
  %7 = alloca ptr, align 8
  %8 = alloca ptr, align 8
  %9 = alloca i32, align 4
  %10 = alloca i32, align 4
  %11 = alloca i32, align 4
  %12 = alloca i32, align 4
  %13 = alloca i32, align 4
  %14 = alloca ptr, align 8
  %15 = alloca ptr, align 8
  store ptr %0, ptr %6, align 8
  store ptr %1, ptr %7, align 8
  store ptr %2, ptr %8, align 8
  store i32 %3, ptr %9, align 4
  store i32 %4, ptr %10, align 4
  call void @llvm.lifetime.start.p0(i64 4, ptr %11) #3
  call void @llvm.lifetime.start.p0(i64 4, ptr %12) #3
  call void @llvm.lifetime.start.p0(i64 4, ptr %13) #3
  call void @llvm.lifetime.start.p0(i64 8, ptr %14) #3
  call void @llvm.lifetime.start.p0(i64 8, ptr %15) #3
  store ptr null, ptr %15, align 8
  br label %16

16:                                               ; preds = %91, %5
  %17 = load i32, ptr %10, align 4
  %18 = icmp sge i32 %17, 4
  br i1 %18, label %19, label %98

19:                                               ; preds = %16
  %20 = load ptr, ptr %6, align 8
  %21 = load i32, ptr %9, align 4
  %22 = call zeroext i16 @tvb_get_ntohs(ptr noundef %20, i32 noundef %21)
  %23 = zext i16 %22 to i32
  store i32 %23, ptr %12, align 4
  %24 = load ptr, ptr %6, align 8
  %25 = load i32, ptr %9, align 4
  %26 = add i32 %25, 2
  %27 = call zeroext i16 @tvb_get_ntohs(ptr noundef %24, i32 noundef %26)
  %28 = zext i16 %27 to i32
  store i32 %28, ptr %13, align 4
  %29 = load i32, ptr %13, align 4
  %30 = load i32, ptr %10, align 4
  %31 = icmp sgt i32 %29, %30
  br i1 %31, label %32, label %33

32:                                               ; preds = %19
  br label %98

33:                                               ; preds = %19
  %34 = load ptr, ptr %7, align 8
  %35 = load i32, ptr %12, align 4
  %36 = call i32 @get_opsi_attribute_index(ptr noundef %34, i32 noundef 0, i32 noundef 52, i32 noundef %35)
  store i32 %36, ptr %11, align 4
  %37 = load i32, ptr %11, align 4
  %38 = icmp eq i32 %37, -1
  br i1 %38, label %39, label %47

39:                                               ; preds = %33
  %40 = load ptr, ptr %8, align 8
  %41 = load ptr, ptr %7, align 8
  %42 = load ptr, ptr %6, align 8
  %43 = load i32, ptr %9, align 4
  %44 = load i32, ptr %13, align 4
  %45 = load i32, ptr %12, align 4
  %46 = call ptr (ptr, ptr, ptr, ptr, i32, i32, ptr, ...) @proto_tree_add_expert_format(ptr noundef %40, ptr noundef %41, ptr noundef @ei_opsi_unknown_attribute, ptr noundef %42, i32 noundef %43, i32 noundef %44, ptr noundef @.str.164, i32 noundef %45)
  br label %87

47:                                               ; preds = %33
  %48 = load ptr, ptr %8, align 8
  %49 = load ptr, ptr %6, align 8
  %50 = load i32, ptr %9, align 4
  %51 = load i32, ptr %13, align 4
  %52 = load i32, ptr %11, align 4
  %53 = sext i32 %52 to i64
  %54 = getelementptr [53 x %struct.opsi_attribute_handle_t], ptr @opsi_attributes, i64 0, i64 %53
  %55 = getelementptr inbounds nuw %struct.opsi_attribute_handle_t, ptr %54, i32 0, i32 2
  %56 = load ptr, ptr %55, align 8
  %57 = load i32, ptr %56, align 4
  %58 = load i32, ptr %11, align 4
  %59 = sext i32 %58 to i64
  %60 = getelementptr [53 x %struct.opsi_attribute_handle_t], ptr @opsi_attributes, i64 0, i64 %59
  %61 = getelementptr inbounds nuw %struct.opsi_attribute_handle_t, ptr %60, i32 0, i32 1
  %62 = load ptr, ptr %61, align 8
  %63 = load i32, ptr %12, align 4
  %64 = call ptr (ptr, ptr, i32, i32, i32, ptr, ptr, ...) @proto_tree_add_subtree_format(ptr noundef %48, ptr noundef %49, i32 noundef %50, i32 noundef %51, i32 noundef %57, ptr noundef %14, ptr noundef @.str.165, ptr noundef %62, i32 noundef %63)
  store ptr %64, ptr %15, align 8
  %65 = load ptr, ptr %15, align 8
  %66 = load i32, ptr @hf_opsi_attribute_length, align 4
  %67 = load ptr, ptr %6, align 8
  %68 = load i32, ptr %9, align 4
  %69 = add i32 %68, 2
  %70 = call ptr @proto_tree_add_item(ptr noundef %65, i32 noundef %66, ptr noundef %67, i32 noundef %69, i32 noundef 2, i32 noundef 0)
  %71 = load i32, ptr %11, align 4
  %72 = sext i32 %71 to i64
  %73 = getelementptr [53 x %struct.opsi_attribute_handle_t], ptr @opsi_attributes, i64 0, i64 %72
  %74 = getelementptr inbounds nuw %struct.opsi_attribute_handle_t, ptr %73, i32 0, i32 4
  %75 = load ptr, ptr %74, align 8
  %76 = load ptr, ptr %6, align 8
  %77 = load ptr, ptr %7, align 8
  %78 = load ptr, ptr %15, align 8
  %79 = load ptr, ptr %14, align 8
  %80 = load i32, ptr %11, align 4
  %81 = sext i32 %80 to i64
  %82 = getelementptr [53 x %struct.opsi_attribute_handle_t], ptr @opsi_attributes, i64 0, i64 %81
  %83 = getelementptr inbounds nuw %struct.opsi_attribute_handle_t, ptr %82, i32 0, i32 3
  %84 = load ptr, ptr %83, align 8
  %85 = load i32, ptr %9, align 4
  %86 = load i32, ptr %13, align 4
  call void %75(ptr noundef %76, ptr noundef %77, ptr noundef %78, ptr noundef %79, ptr noundef %84, i32 noundef %85, i32 noundef %86)
  br label %87

87:                                               ; preds = %47, %39
  %88 = load i32, ptr %13, align 4
  %89 = icmp slt i32 %88, 4
  br i1 %89, label %90, label %91

90:                                               ; preds = %87
  br label %98

91:                                               ; preds = %87
  %92 = load i32, ptr %13, align 4
  %93 = load i32, ptr %9, align 4
  %94 = add i32 %93, %92
  store i32 %94, ptr %9, align 4
  %95 = load i32, ptr %13, align 4
  %96 = load i32, ptr %10, align 4
  %97 = sub i32 %96, %95
  store i32 %97, ptr %10, align 4
  br label %16, !llvm.loop !8

98:                                               ; preds = %90, %32, %16
  %99 = load i32, ptr %10, align 4
  %100 = icmp ne i32 %99, 0
  br i1 %100, label %101, label %107

101:                                              ; preds = %98
  %102 = load ptr, ptr %8, align 8
  %103 = load ptr, ptr %7, align 8
  %104 = load ptr, ptr %6, align 8
  %105 = load i32, ptr %9, align 4
  %106 = call ptr @proto_tree_add_expert(ptr noundef %102, ptr noundef %103, ptr noundef @ei_opsi_short_frame, ptr noundef %104, i32 noundef %105, i32 noundef -1)
  br label %107

107:                                              ; preds = %101, %98
  call void @llvm.lifetime.end.p0(i64 8, ptr %15) #3
  call void @llvm.lifetime.end.p0(i64 8, ptr %14) #3
  call void @llvm.lifetime.end.p0(i64 4, ptr %13) #3
  call void @llvm.lifetime.end.p0(i64 4, ptr %12) #3
  call void @llvm.lifetime.end.p0(i64 4, ptr %11) #3
  ret void
}

; Function Attrs: null_pointer_is_valid sspstrong uwtable
define internal i32 @dissect_opsi_pdu(ptr noundef %0, ptr noundef %1, ptr noundef %2, ptr noundef %3) #0 {
  %5 = alloca ptr, align 8
  %6 = alloca ptr, align 8
  %7 = alloca ptr, align 8
  %8 = alloca ptr, align 8
  %9 = alloca ptr, align 8
  %10 = alloca ptr, align 8
  store ptr %0, ptr %5, align 8
  store ptr %1, ptr %6, align 8
  store ptr %2, ptr %7, align 8
  store ptr %3, ptr %8, align 8
  call void @llvm.lifetime.start.p0(i64 8, ptr %9) #3
  call void @llvm.lifetime.start.p0(i64 8, ptr %10) #3
  %11 = load ptr, ptr %6, align 8
  %12 = getelementptr inbounds nuw %struct._packet_info, ptr %11, i32 0, i32 1
  %13 = load ptr, ptr %12, align 8
  call void @col_set_str(ptr noundef %13, i32 noundef 35, ptr noundef @.str.91)
  %14 = load ptr, ptr %6, align 8
  %15 = getelementptr inbounds nuw %struct._packet_info, ptr %14, i32 0, i32 1
  %16 = load ptr, ptr %15, align 8
  call void @col_clear(ptr noundef %16, i32 noundef 25)
  %17 = load ptr, ptr %6, align 8
  %18 = getelementptr inbounds nuw %struct._packet_info, ptr %17, i32 0, i32 1
  %19 = load ptr, ptr %18, align 8
  %20 = load ptr, ptr %5, align 8
  %21 = call zeroext i8 @tvb_get_uint8(ptr noundef %20, i32 noundef 2)
  %22 = zext i8 %21 to i32
  %23 = call ptr @val_to_str(i32 noundef %22, ptr noundef @opsi_opcode, ptr noundef @.str.163)
  call void @col_append_sep_str(ptr noundef %19, i32 noundef 25, ptr noundef @.str.162, ptr noundef %23)
  %24 = load ptr, ptr %6, align 8
  %25 = getelementptr inbounds nuw %struct._packet_info, ptr %24, i32 0, i32 1
  %26 = load ptr, ptr %25, align 8
  call void @col_set_fence(ptr noundef %26, i32 noundef 25)
  %27 = load ptr, ptr %7, align 8
  %28 = load i32, ptr @proto_opsi, align 4
  %29 = load ptr, ptr %5, align 8
  %30 = call ptr @proto_tree_add_item(ptr noundef %27, i32 noundef %28, ptr noundef %29, i32 noundef 0, i32 noundef -1, i32 noundef 0)
  store ptr %30, ptr %9, align 8
  %31 = load ptr, ptr %9, align 8
  %32 = load i32, ptr @ett_opsi, align 4
  %33 = call ptr @proto_item_add_subtree(ptr noundef %31, i32 noundef %32)
  store ptr %33, ptr %10, align 8
  %34 = load ptr, ptr %10, align 8
  %35 = icmp ne ptr %34, null
  br i1 %35, label %36, label %61

36:                                               ; preds = %4
  %37 = load ptr, ptr %10, align 8
  %38 = load i32, ptr @hf_opsi_major_version, align 4
  %39 = load ptr, ptr %5, align 8
  %40 = call ptr @proto_tree_add_item(ptr noundef %37, i32 noundef %38, ptr noundef %39, i32 noundef 0, i32 noundef 1, i32 noundef 0)
  %41 = load ptr, ptr %10, align 8
  %42 = load i32, ptr @hf_opsi_minor_version, align 4
  %43 = load ptr, ptr %5, align 8
  %44 = call ptr @proto_tree_add_item(ptr noundef %41, i32 noundef %42, ptr noundef %43, i32 noundef 1, i32 noundef 1, i32 noundef 0)
  %45 = load ptr, ptr %10, align 8
  %46 = load i32, ptr @hf_opsi_opcode, align 4
  %47 = load ptr, ptr %5, align 8
  %48 = call ptr @proto_tree_add_item(ptr noundef %45, i32 noundef %46, ptr noundef %47, i32 noundef 2, i32 noundef 1, i32 noundef 0)
  %49 = load ptr, ptr %10, align 8
  %50 = load i32, ptr @hf_opsi_hook_id, align 4
  %51 = load ptr, ptr %5, align 8
  %52 = call ptr @proto_tree_add_item(ptr noundef %49, i32 noundef %50, ptr noundef %51, i32 noundef 3, i32 noundef 1, i32 noundef 0)
  %53 = load ptr, ptr %10, align 8
  %54 = load i32, ptr @hf_opsi_length, align 4
  %55 = load ptr, ptr %5, align 8
  %56 = call ptr @proto_tree_add_item(ptr noundef %53, i32 noundef %54, ptr noundef %55, i32 noundef 4, i32 noundef 2, i32 noundef 0)
  %57 = load ptr, ptr %10, align 8
  %58 = load i32, ptr @hf_opsi_session_id, align 4
  %59 = load ptr, ptr %5, align 8
  %60 = call ptr @proto_tree_add_item(ptr noundef %57, i32 noundef %58, ptr noundef %59, i32 noundef 6, i32 noundef 2, i32 noundef 0)
  br label %61

61:                                               ; preds = %36, %4
  %62 = load ptr, ptr %5, align 8
  %63 = load ptr, ptr %6, align 8
  %64 = load ptr, ptr %10, align 8
  %65 = load ptr, ptr %5, align 8
  %66 = call i32 @tvb_reported_length(ptr noundef %65)
  %67 = sub i32 %66, 8
  %68 = load ptr, ptr %5, align 8
  %69 = call zeroext i16 @tvb_get_ntohs(ptr noundef %68, i32 noundef 4)
  %70 = zext i16 %69 to i32
  %71 = sub i32 %70, 8
  %72 = icmp slt i32 %67, %71
  br i1 %72, label %73, label %77

73:                                               ; preds = %61
  %74 = load ptr, ptr %5, align 8
  %75 = call i32 @tvb_reported_length(ptr noundef %74)
  %76 = sub i32 %75, 8
  br label %82

77:                                               ; preds = %61
  %78 = load ptr, ptr %5, align 8
  %79 = call zeroext i16 @tvb_get_ntohs(ptr noundef %78, i32 noundef 4)
  %80 = zext i16 %79 to i32
  %81 = sub i32 %80, 8
  br label %82

82:                                               ; preds = %77, %73
  %83 = phi i32 [ %76, %73 ], [ %81, %77 ]
  call void @dissect_attributes(ptr noundef %62, ptr noundef %63, ptr noundef %64, i32 noundef 8, i32 noundef %83)
  %84 = load ptr, ptr %5, align 8
  %85 = call i32 @tvb_reported_length(ptr noundef %84)
  call void @llvm.lifetime.end.p0(i64 8, ptr %10) #3
  call void @llvm.lifetime.end.p0(i64 8, ptr %9) #3
  ret i32 %85
}