; Function Attrs: null_pointer_is_valid sspstrong uwtable
define internal i32 @dissect_opsi_pdu(ptr noundef %0, ptr noundef %1, ptr noundef %2, ptr readnone captures(none) %3) #0 {
  %5 = alloca ptr, align 8
  %6 = getelementptr inbounds nuw i8, ptr %1, i64 8
  %7 = load ptr, ptr %6, align 8
  tail call void @col_set_str(ptr noundef %7, i32 noundef 35, ptr noundef nonnull @.str.91)
  %8 = load ptr, ptr %6, align 8
  tail call void @col_clear(ptr noundef %8, i32 noundef 25)
  %9 = load ptr, ptr %6, align 8
  %10 = tail call zeroext i8 @tvb_get_uint8(ptr noundef %0, i32 noundef 2)
  %11 = zext i8 %10 to i32
  %12 = tail call ptr @val_to_str(i32 noundef %11, ptr noundef nonnull @opsi_opcode, ptr noundef nonnull @.str.163)
  tail call void @col_append_sep_str(ptr noundef %9, i32 noundef 25, ptr noundef nonnull @.str.162, ptr noundef %12)
  %13 = load ptr, ptr %6, align 8
  tail call void @col_set_fence(ptr noundef %13, i32 noundef 25)
  %14 = load i32, ptr @proto_opsi, align 4
  %15 = tail call ptr @proto_tree_add_item(ptr noundef %2, i32 noundef %14, ptr noundef %0, i32 noundef 0, i32 noundef -1, i32 noundef 0)
  %16 = load i32, ptr @ett_opsi, align 4
  %17 = tail call ptr @proto_item_add_subtree(ptr noundef %15, i32 noundef %16)
  %.not = icmp eq ptr %17, null
  br i1 %.not, label %31, label %18

18:                                               ; preds = %4
  %19 = load i32, ptr @hf_opsi_major_version, align 4
  %20 = tail call ptr @proto_tree_add_item(ptr noundef nonnull %17, i32 noundef %19, ptr noundef %0, i32 noundef 0, i32 noundef 1, i32 noundef 0)
  %21 = load i32, ptr @hf_opsi_minor_version, align 4
  %22 = tail call ptr @proto_tree_add_item(ptr noundef nonnull %17, i32 noundef %21, ptr noundef %0, i32 noundef 1, i32 noundef 1, i32 noundef 0)
  %23 = load i32, ptr @hf_opsi_opcode, align 4
  %24 = tail call ptr @proto_tree_add_item(ptr noundef nonnull %17, i32 noundef %23, ptr noundef %0, i32 noundef 2, i32 noundef 1, i32 noundef 0)
  %25 = load i32, ptr @hf_opsi_hook_id, align 4
  %26 = tail call ptr @proto_tree_add_item(ptr noundef nonnull %17, i32 noundef %25, ptr noundef %0, i32 noundef 3, i32 noundef 1, i32 noundef 0)
  %27 = load i32, ptr @hf_opsi_length, align 4
  %28 = tail call ptr @proto_tree_add_item(ptr noundef nonnull %17, i32 noundef %27, ptr noundef %0, i32 noundef 4, i32 noundef 2, i32 noundef 0)
  %29 = load i32, ptr @hf_opsi_session_id, align 4
  %30 = tail call ptr @proto_tree_add_item(ptr noundef nonnull %17, i32 noundef %29, ptr noundef %0, i32 noundef 6, i32 noundef 2, i32 noundef 0)
  br label %31

31:                                               ; preds = %18, %4
  %32 = tail call i32 @tvb_reported_length(ptr noundef %0)
  %33 = add i32 %32, -8
  %34 = tail call zeroext i16 @tvb_get_ntohs(ptr noundef %0, i32 noundef 4)
  %35 = zext i16 %34 to i32
  %36 = add nsw i32 %35, -8
  %37 = icmp slt i32 %33, %36
  br i1 %37, label %38, label %40

38:                                               ; preds = %31
  %39 = tail call i32 @tvb_reported_length(ptr noundef %0)
  br label %43

40:                                               ; preds = %31
  %41 = tail call zeroext i16 @tvb_get_ntohs(ptr noundef %0, i32 noundef 4)
  %42 = zext i16 %41 to i32
  br label %43

43:                                               ; preds = %40, %38
  %.in = phi i32 [ %39, %38 ], [ %42, %40 ]
  %44 = add i32 %.in, -8
  call void @llvm.lifetime.start.p0(i64 8, ptr nonnull %5) #3
  %45 = icmp sgt i32 %44, 3
  br i1 %45, label %.lr.ph.i, label %._crit_edge.i

.lr.ph.i:                                         ; preds = %43, %75
  %.050.i = phi i32 [ %76, %75 ], [ 8, %43 ]
  %.04249.i = phi i32 [ %77, %75 ], [ %44, %43 ]
  %46 = call zeroext i16 @tvb_get_ntohs(ptr noundef %0, i32 noundef %.050.i)
  %47 = zext i16 %46 to i32
  %48 = add i32 %.050.i, 2
  %49 = call zeroext i16 @tvb_get_ntohs(ptr noundef %0, i32 noundef %48)
  %50 = zext i16 %49 to i32
  %51 = icmp samesign ult i32 %.04249.i, %50
  br i1 %51, label %.thread.i, label %52

52:                                               ; preds = %.lr.ph.i
  %53 = call fastcc i32 @get_opsi_attribute_index(ptr noundef %1, i32 noundef 0, i32 noundef 52, i32 noundef %47)
  %54 = icmp eq i32 %53, -1
  br i1 %54, label %55, label %57

55:                                               ; preds = %52
  %56 = call ptr (ptr, ptr, ptr, ptr, i32, i32, ptr, ...) @proto_tree_add_expert_format(ptr noundef %17, ptr noundef %1, ptr noundef nonnull @ei_opsi_unknown_attribute, ptr noundef %0, i32 noundef %.050.i, i32 noundef %50, ptr noundef nonnull @.str.164, i32 noundef %47)
  br label %73

57:                                               ; preds = %52
  %58 = zext nneg i32 %53 to i64
  %59 = getelementptr [53 x %struct.opsi_attribute_handle_t], ptr @opsi_attributes, i64 0, i64 %58
  %60 = getelementptr inbounds nuw i8, ptr %59, i64 16
  %61 = load ptr, ptr %60, align 8
  %62 = load i32, ptr %61, align 4
  %63 = getelementptr inbounds nuw i8, ptr %59, i64 8
  %64 = load ptr, ptr %63, align 8
  %65 = call ptr (ptr, ptr, i32, i32, i32, ptr, ptr, ...) @proto_tree_add_subtree_format(ptr noundef %17, ptr noundef %0, i32 noundef %.050.i, i32 noundef %50, i32 noundef %62, ptr noundef nonnull %5, ptr noundef nonnull @.str.165, ptr noundef %64, i32 noundef %47)
  %66 = load i32, ptr @hf_opsi_attribute_length, align 4
  %67 = call ptr @proto_tree_add_item(ptr noundef %65, i32 noundef %66, ptr noundef %0, i32 noundef %48, i32 noundef 2, i32 noundef 0)
  %68 = getelementptr inbounds nuw i8, ptr %59, i64 32
  %69 = load ptr, ptr %68, align 8
  %70 = load ptr, ptr %5, align 8
  %71 = getelementptr inbounds nuw i8, ptr %59, i64 24
  %72 = load ptr, ptr %71, align 8
  call void %69(ptr noundef %0, ptr noundef %1, ptr noundef %65, ptr noundef %70, ptr noundef %72, i32 noundef %.050.i, i32 noundef %50)
  br label %73

73:                                               ; preds = %57, %55
  %74 = icmp ult i16 %49, 4
  br i1 %74, label %.thread.i, label %75

75:                                               ; preds = %73
  %76 = add i32 %.050.i, %50
  %77 = sub nsw i32 %.04249.i, %50
  %78 = icmp sgt i32 %77, 3
  br i1 %78, label %.lr.ph.i, label %._crit_edge.i, !llvm.loop !8

._crit_edge.i:                                    ; preds = %75, %43
  %.042.lcssa.i = phi i32 [ %44, %43 ], [ %77, %75 ]
  %.0.lcssa.i = phi i32 [ 8, %43 ], [ %76, %75 ]
  %.not.i = icmp eq i32 %.042.lcssa.i, 0
  br i1 %.not.i, label %dissect_attributes.exit, label %.thread.i

.thread.i:                                        ; preds = %73, %.lr.ph.i, %._crit_edge.i
  %.047.i = phi i32 [ %.0.lcssa.i, %._crit_edge.i ], [ %.050.i, %.lr.ph.i ], [ %.050.i, %73 ]
  %79 = call ptr @proto_tree_add_expert(ptr noundef %17, ptr noundef %1, ptr noundef nonnull @ei_opsi_short_frame, ptr noundef %0, i32 noundef %.047.i, i32 noundef -1)
  br label %dissect_attributes.exit

dissect_attributes.exit:                          ; preds = %._crit_edge.i, %.thread.i
  call void @llvm.lifetime.end.p0(i64 8, ptr nonnull %5) #3
  %80 = call i32 @tvb_reported_length(ptr noundef %0)
  ret i32 %80
}